target datalayout = "e-m:e-p270:32:32-p271:32:32-p272:64:64-i64:64-i128:128-f80:128-n8:16:32:64-S128"
target triple = "x86_64-pc-linux-gnu"

%"struct.std::_Rb_tree_header" = type { %"struct.std::_Rb_tree_node_base", i64 }
%"struct.std::_Rb_tree_node_base" = type { i32, ptr, ptr, ptr }
%"class.google::protobuf::SimpleDescriptorDatabase" = type { %"class.google::protobuf::DescriptorDatabase", %"class.google::protobuf::SimpleDescriptorDatabase::DescriptorIndex", %"class.std::vector" }
%"class.google::protobuf::DescriptorDatabase" = type { ptr }
%"class.google::protobuf::SimpleDescriptorDatabase::DescriptorIndex" = type { %"class.std::map", %"class.std::map", %"class.std::map.2" }
%"class.std::map" = type { %"class.std::_Rb_tree" }
%"class.std::_Rb_tree" = type { %"struct.std::_Rb_tree<std::__cxx11::basic_string<char>, std::pair<const std::__cxx11::basic_string<char>, const google::protobuf::FileDescriptorProto *>, std::_Select1st<std::pair<const std::__cxx11::basic_string<char>, const google::protobuf::FileDescriptorProto *>>, std::less<std::__cxx11::basic_string<char>>>::_Rb_tree_impl" }
%"struct.std::_Rb_tree<std::__cxx11::basic_string<char>, std::pair<const std::__cxx11::basic_string<char>, const google::protobuf::FileDescriptorProto *>, std::_Select1st<std::pair<const std::__cxx11::basic_string<char>, const google::protobuf::FileDescriptorProto *>>, std::less<std::__cxx11::basic_string<char>>>::_Rb_tree_impl" = type { [8 x i8], %"struct.std::_Rb_tree_header" }
%"class.std::map.2" = type { %"class.std::_Rb_tree.3" }
%"class.std::_Rb_tree.3" = type { %"struct.std::_Rb_tree<std::pair<std::__cxx11::basic_string<char>, int>, std::pair<const std::pair<std::__cxx11::basic_string<char>, int>, const google::protobuf::FileDescriptorProto *>, std::_Select1st<std::pair<const std::pair<std::__cxx11::basic_string<char>, int>, const google::protobuf::FileDescriptorProto *>>, std::less<std::pair<std::__cxx11::basic_string<char>, int>>>::_Rb_tree_impl" }
%"struct.std::_Rb_tree<std::pair<std::__cxx11::basic_string<char>, int>, std::pair<const std::pair<std::__cxx11::basic_string<char>, int>, const google::protobuf::FileDescriptorProto *>, std::_Select1st<std::pair<const std::pair<std::__cxx11::basic_string<char>, int>, const google::protobuf::FileDescriptorProto *>>, std::less<std::pair<std::__cxx11::basic_string<char>, int>>>::_Rb_tree_impl" = type { [8 x i8], %"struct.std::_Rb_tree_header" }
%"class.std::vector" = type { %"struct.std::_Vector_base" }
%"struct.std::_Vector_base" = type { %"struct.std::_Vector_base<std::unique_ptr<const google::protobuf::FileDescriptorProto>, std::allocator<std::unique_ptr<const google::protobuf::FileDescriptorProto>>>::_Vector_impl" }
%"struct.std::_Vector_base<std::unique_ptr<const google::protobuf::FileDescriptorProto>, std::allocator<std::unique_ptr<const google::protobuf::FileDescriptorProto>>>::_Vector_impl" = type { %"struct.std::_Vector_base<std::unique_ptr<const google::protobuf::FileDescriptorProto>, std::allocator<std::unique_ptr<const google::protobuf::FileDescriptorProto>>>::_Vector_impl_data" }
%"struct.std::_Vector_base<std::unique_ptr<const google::protobuf::FileDescriptorProto>, std::allocator<std::unique_ptr<const google::protobuf::FileDescriptorProto>>>::_Vector_impl_data" = type { ptr, ptr, ptr }

; Function Attrs: mustprogress uwtable
define hidden noundef zeroext i1 @_ZN6google8protobuf24SimpleDescriptorDatabase9MaybeCopyEPKNS0_19FileDescriptorProtoEPS2_(ptr noundef nonnull align 8 dereferenceable(176) %0, ptr noundef %1, ptr noundef %2) #6 align 2 {
  %4 = alloca i1, align 1
  %5 = alloca ptr, align 8
  %6 = alloca ptr, align 8
  %7 = alloca ptr, align 8
  store ptr %0, ptr %5, align 8, !tbaa !14
  store ptr %1, ptr %6, align 8, !tbaa !24
  store ptr %2, ptr %7, align 8, !tbaa !24
  %8 = load ptr, ptr %6, align 8, !tbaa !24
  %9 = icmp eq ptr %8, null
  br i1 %9, label %10, label %11

10:                                               ; preds = %3
  store i1 false, ptr %4, align 1
  br label %14

11:                                               ; preds = %3
  %12 = load ptr, ptr %7, align 8, !tbaa !24
  %13 = load ptr, ptr %6, align 8, !tbaa !24
  call void @_ZN6google8protobuf19FileDescriptorProto8CopyFromERKS1_(ptr noundef nonnull align 8 dereferenceable(216) %12, ptr noundef nonnull align 8 dereferenceable(216) %13)
  store i1 true, ptr %4, align 1
  br label %14

14:                                               ; preds = %11, %10
  %15 = load i1, ptr %4, align 1
  ret i1 %15
}

; Function Attrs: mustprogress uwtable
define hidden noundef zeroext i1 @_ZN6google8protobuf24SimpleDescriptorDatabase24FindFileContainingSymbolERKNSt7__cxx1112basic_stringIcSt11char_traitsIcESaIcEEEPNS0_19FileDescriptorProtoE(ptr noundef nonnull align 8 dereferenceable(176) %0, ptr noundef nonnull align 8 dereferenceable(32) %1, ptr noundef %2) unnamed_addr #6 align 2 {
  %4 = alloca ptr, align 8
  %5 = alloca ptr, align 8
  %6 = alloca ptr, align 8
  store ptr %0, ptr %4, align 8, !tbaa !14
  store ptr %1, ptr %5, align 8, !tbaa !12
  store ptr %2, ptr %6, align 8, !tbaa !24
  %7 = load ptr, ptr %4, align 8
  %8 = getelementptr inbounds nuw %"class.google::protobuf::SimpleDescriptorDatabase", ptr %7, i32 0, i32 1
  %9 = load ptr, ptr %5, align 8, !tbaa !12
  %10 = call noundef ptr @_ZN6google8protobuf24SimpleDescriptorDatabase15DescriptorIndexIPKNS0_19FileDescriptorProtoEE10FindSymbolERKNSt7__cxx1112basic_stringIcSt11char_traitsIcESaIcEEE(ptr noundef nonnull align 8 dereferenceable(144) %8, ptr noundef nonnull align 8 dereferenceable(32) %9)
  %11 = load ptr, ptr %6, align 8, !tbaa !24
  %12 = call noundef zeroext i1 @_ZN6google8protobuf24SimpleDescriptorDatabase9MaybeCopyEPKNS0_19FileDescriptorProtoEPS2_(ptr noundef nonnull align 8 dereferenceable(176) %7, ptr noundef %10, ptr noundef %11)
  ret i1 %12
}